; Function Attrs: mustprogress nofree norecurse nounwind uwtable
define void @_ZN4base18ThreadLocalStorage4SlotD2Ev(ptr noundef nonnull align 4 dereferenceable(8) %0) unnamed_addr #4 align 2 personality ptr @__gxx_personality_v0 {
  %2 = getelementptr inbounds nuw i8, ptr %0, i64 4
  %3 = load i32, ptr %2, align 4, !tbaa !9
  %4 = sext i32 %3 to i64
  %5 = getelementptr inbounds [256 x ptr], ptr @_ZN12_GLOBAL__N_117g_tls_destructorsE, i64 0, i64 %4
  store volatile ptr null, ptr %5, align 8, !tbaa !3
  store i32 0, ptr %2, align 4, !tbaa !9
  store atomic volatile i32 0, ptr %0 release, align 4
  ret void
}